target datalayout = "e-m:e-p270:32:32-p271:32:32-p272:64:64-i64:64-i128:128-f80:128-n8:16:32:64-S128"
target triple = "x86_64-pc-linux-gnu"

@.str.9 = private unnamed_addr constant [20 x i8] c"invalid option '%s'\00", align 1

; Function Attrs: mustprogress uwtable
define dso_local noundef ptr @_Z17luaL_checklstringP9lua_StateiPm(ptr noundef %0, i32 noundef %1, ptr noundef %2) #3 {
  %4 = alloca ptr, align 8
  %5 = alloca i32, align 4
  %6 = alloca ptr, align 8
  %7 = alloca ptr, align 8
  store ptr %0, ptr %4, align 8
  store i32 %1, ptr %5, align 4
  store ptr %2, ptr %6, align 8
  %8 = load ptr, ptr %4, align 8
  %9 = load i32, ptr %5, align 4
  %10 = load ptr, ptr %6, align 8
  %11 = call noundef ptr @_Z13lua_tolstringP9lua_StateiPm(ptr noundef %8, i32 noundef %9, ptr noundef %10)
  store ptr %11, ptr %7, align 8
  %12 = load ptr, ptr %7, align 8
  %13 = icmp ne ptr %12, null
  br i1 %13, label %17, label %14

14:                                               ; preds = %3
  %15 = load ptr, ptr %4, align 8
  %16 = load i32, ptr %5, align 4
  call void @_ZL9tag_errorP9lua_Stateii(ptr noundef %15, i32 noundef %16, i32 noundef 5) #8
  unreachable

17:                                               ; preds = %3
  %18 = load ptr, ptr %7, align 8
  ret ptr %18
}

; Function Attrs: mustprogress uwtable
define dso_local noundef ptr @_Z15luaL_optlstringP9lua_StateiPKcPm(ptr noundef %0, i32 noundef %1, ptr noundef %2, ptr noundef %3) #3 {
  %5 = alloca ptr, align 8
  %6 = alloca ptr, align 8
  %7 = alloca i32, align 4
  %8 = alloca ptr, align 8
  %9 = alloca ptr, align 8
  store ptr %0, ptr %6, align 8
  store i32 %1, ptr %7, align 4
  store ptr %2, ptr %8, align 8
  store ptr %3, ptr %9, align 8
  %10 = load ptr, ptr %6, align 8
  %11 = load i32, ptr %7, align 4
  %12 = call noundef i32 @_Z8lua_typeP9lua_Statei(ptr noundef %10, i32 noundef %11)
  %13 = icmp sle i32 %12, 0
  br i1 %13, label %14, label %29

14:                                               ; preds = %4
  %15 = load ptr, ptr %9, align 8
  %16 = icmp ne ptr %15, null
  br i1 %16, label %17, label %27

17:                                               ; preds = %14
  %18 = load ptr, ptr %8, align 8
  %19 = icmp ne ptr %18, null
  br i1 %19, label %20, label %23

20:                                               ; preds = %17
  %21 = load ptr, ptr %8, align 8
  %22 = call i64 @strlen(ptr noundef %21) #9
  br label %24

23:                                               ; preds = %17
  br label %24

24:                                               ; preds = %23, %20
  %25 = phi i64 [ %22, %20 ], [ 0, %23 ]
  %26 = load ptr, ptr %9, align 8
  store i64 %25, ptr %26, align 8
  br label %27

27:                                               ; preds = %24, %14
  %28 = load ptr, ptr %8, align 8
  store ptr %28, ptr %5, align 8
  br label %34

29:                                               ; preds = %4
  %30 = load ptr, ptr %6, align 8
  %31 = load i32, ptr %7, align 4
  %32 = load ptr, ptr %9, align 8
  %33 = call noundef ptr @_Z17luaL_checklstringP9lua_StateiPm(ptr noundef %30, i32 noundef %31, ptr noundef %32)
  store ptr %33, ptr %5, align 8
  br label %34

34:                                               ; preds = %29, %27
  %35 = load ptr, ptr %5, align 8
  ret ptr %35
}

; Function Attrs: mustprogress uwtable
define dso_local noundef i32 @_Z16luaL_checkoptionP9lua_StateiPKcPKS2_(ptr noundef %0, i32 noundef %1, ptr noundef %2, ptr noundef %3) #3 {
  %5 = alloca ptr, align 8
  %6 = alloca i32, align 4
  %7 = alloca ptr, align 8
  %8 = alloca ptr, align 8
  %9 = alloca ptr, align 8
  %10 = alloca i32, align 4
  %11 = alloca ptr, align 8
  store ptr %0, ptr %5, align 8
  store i32 %1, ptr %6, align 4
  store ptr %2, ptr %7, align 8
  store ptr %3, ptr %8, align 8
  %12 = load ptr, ptr %7, align 8
  %13 = icmp ne ptr %12, null
  br i1 %13, label %14, label %19

14:                                               ; preds = %4
  %15 = load ptr, ptr %5, align 8
  %16 = load i32, ptr %6, align 4
  %17 = load ptr, ptr %7, align 8
  %18 = call noundef ptr @_Z15luaL_optlstringP9lua_StateiPKcPm(ptr noundef %15, i32 noundef %16, ptr noundef %17, ptr noundef null)
  br label %23

19:                                               ; preds = %4
  %20 = load ptr, ptr %5, align 8
  %21 = load i32, ptr %6, align 4
  %22 = call noundef ptr @_Z17luaL_checklstringP9lua_StateiPm(ptr noundef %20, i32 noundef %21, ptr noundef null)
  br label %23

23:                                               ; preds = %19, %14
  %24 = phi ptr [ %18, %14 ], [ %22, %19 ]
  store ptr %24, ptr %9, align 8
  store i32 0, ptr %10, align 4
  br label %25

25:                                               ; preds = %44, %23
  %26 = load ptr, ptr %8, align 8
  %27 = load i32, ptr %10, align 4
  %28 = sext i32 %27 to i64
  %29 = getelementptr inbounds ptr, ptr %26, i64 %28
  %30 = load ptr, ptr %29, align 8
  %31 = icmp ne ptr %30, null
  br i1 %31, label %32, label %47

32:                                               ; preds = %25
  %33 = load ptr, ptr %8, align 8
  %34 = load i32, ptr %10, align 4
  %35 = sext i32 %34 to i64
  %36 = getelementptr inbounds ptr, ptr %33, i64 %35
  %37 = load ptr, ptr %36, align 8
  %38 = load ptr, ptr %9, align 8
  %39 = call i32 @strcmp(ptr noundef %37, ptr noundef %38) #9
  %40 = icmp eq i32 %39, 0
  br i1 %40, label %41, label %43

41:                                               ; preds = %32
  %42 = load i32, ptr %10, align 4
  ret i32 %42

43:                                               ; preds = %32
  br label %44

44:                                               ; preds = %43
  %45 = load i32, ptr %10, align 4
  %46 = add nsw i32 %45, 1
  store i32 %46, ptr %10, align 4
  br label %25, !llvm.loop !5

47:                                               ; preds = %25
  %48 = load ptr, ptr %5, align 8
  %49 = load ptr, ptr %9, align 8
  %50 = call noundef ptr (ptr, ptr, ...) @_Z16lua_pushfstringLP9lua_StatePKcz(ptr noundef %48, ptr noundef @.str.9, ptr noundef %49)
  store ptr %50, ptr %11, align 8
  %51 = load ptr, ptr %5, align 8
  %52 = load i32, ptr %6, align 4
  %53 = load ptr, ptr %11, align 8
  call void @_Z14luaL_argerrorLP9lua_StateiPKc(ptr noundef %51, i32 noundef %52, ptr noundef %53) #8
  unreachable
}