; Function Attrs: mustprogress uwtable
define dso_local noundef i32 @_Z16luaL_checkoptionP9lua_StateiPKcPKS2_(ptr noundef %0, i32 noundef %1, ptr noundef %2, ptr nocapture noundef readonly %3) local_unnamed_addr #2 {
  %.not = icmp eq ptr %2, null
  br i1 %.not, label %11, label %5

5:                                                ; preds = %4
  %6 = tail call noundef i32 @_Z8lua_typeP9lua_Statei(ptr noundef %0, i32 noundef %1)
  %7 = icmp slt i32 %6, 1
  br i1 %7, label %_Z15luaL_optlstringP9lua_StateiPKcPm.exit, label %8

8:                                                ; preds = %5
  %9 = tail call noundef ptr @_Z13lua_tolstringP9lua_StateiPm(ptr noundef %0, i32 noundef %1, ptr noundef null)
  %.not.i.i = icmp eq ptr %9, null
  br i1 %.not.i.i, label %10, label %_Z15luaL_optlstringP9lua_StateiPKcPm.exit

10:                                               ; preds = %8
  tail call fastcc void @_ZL9tag_errorP9lua_Stateii(ptr noundef %0, i32 noundef %1, i32 noundef 5) #11
  unreachable

11:                                               ; preds = %4
  %12 = tail call noundef ptr @_Z13lua_tolstringP9lua_StateiPm(ptr noundef %0, i32 noundef %1, ptr noundef null)
  %.not.i = icmp eq ptr %12, null
  br i1 %.not.i, label %13, label %_Z15luaL_optlstringP9lua_StateiPKcPm.exit

13:                                               ; preds = %11
  tail call fastcc void @_ZL9tag_errorP9lua_Stateii(ptr noundef %0, i32 noundef %1, i32 noundef 5) #11
  unreachable

_Z15luaL_optlstringP9lua_StateiPKcPm.exit:        ; preds = %11, %8, %5
  %14 = phi ptr [ %9, %8 ], [ %2, %5 ], [ %12, %11 ]
  %15 = load ptr, ptr %3, align 8
  %.not1921 = icmp eq ptr %15, null
  br i1 %.not1921, label %._crit_edge, label %.lr.ph

.lr.ph:                                           ; preds = %_Z15luaL_optlstringP9lua_StateiPKcPm.exit, %21
  %indvars.iv = phi i64 [ %indvars.iv.next, %21 ], [ 0, %_Z15luaL_optlstringP9lua_StateiPKcPm.exit ]
  %16 = phi ptr [ %23, %21 ], [ %15, %_Z15luaL_optlstringP9lua_StateiPKcPm.exit ]
  %17 = tail call i32 @strcmp(ptr noundef nonnull dereferenceable(1) %16, ptr noundef nonnull dereferenceable(1) %14) #10
  %18 = icmp eq i32 %17, 0
  br i1 %18, label %19, label %21

19:                                               ; preds = %.lr.ph
  %20 = trunc nuw nsw i64 %indvars.iv to i32
  ret i32 %20

21:                                               ; preds = %.lr.ph
  %indvars.iv.next = add nuw nsw i64 %indvars.iv, 1
  %22 = getelementptr inbounds ptr, ptr %3, i64 %indvars.iv.next
  %23 = load ptr, ptr %22, align 8
  %.not19 = icmp eq ptr %23, null
  br i1 %.not19, label %._crit_edge, label %.lr.ph, !llvm.loop !5

._crit_edge:                                      ; preds = %21, %_Z15luaL_optlstringP9lua_StateiPKcPm.exit
  %24 = tail call noundef ptr (ptr, ptr, ...) @_Z16lua_pushfstringLP9lua_StatePKcz(ptr noundef %0, ptr noundef nonnull @.str.9, ptr noundef nonnull %14)
  tail call void @_Z14luaL_argerrorLP9lua_StateiPKc(ptr noundef %0, i32 noundef %1, ptr noundef %24) #11
  unreachable
}